target datalayout = "e-m:e-p270:32:32-p271:32:32-p272:64:64-i64:64-i128:128-f80:128-n8:16:32:64-S128"
target triple = "x86_64-pc-linux-gnu"

; Function Attrs: nounwind uwtable
define internal i32 @g(double noundef %0, ptr noundef %1, ptr noundef %2, ptr noundef %3) #0 {
  %5 = alloca double, align 8
  %6 = alloca ptr, align 8
  %7 = alloca ptr, align 8
  %8 = alloca ptr, align 8
  %9 = alloca double, align 8
  %10 = alloca double, align 8
  %11 = alloca i32, align 4
  %12 = alloca ptr, align 8
  store double %0, ptr %5, align 8, !tbaa !20
  store ptr %1, ptr %6, align 8, !tbaa !4
  store ptr %2, ptr %7, align 8, !tbaa !14
  store ptr %3, ptr %8, align 8, !tbaa !13
  call void @llvm.lifetime.start.p0(i64 8, ptr %9) #5
  call void @llvm.lifetime.start.p0(i64 8, ptr %10) #5
  call void @llvm.lifetime.start.p0(i64 4, ptr %11) #5
  call void @llvm.lifetime.start.p0(i64 8, ptr %12) #5
  %13 = load ptr, ptr %8, align 8, !tbaa !13
  %14 = load i32, ptr %13, align 4, !tbaa !16
  store i32 %14, ptr %11, align 4, !tbaa !16
  %15 = load ptr, ptr %6, align 8, !tbaa !4
  %16 = call ptr @N_VGetArrayPointer(ptr noundef %15)
  store ptr %16, ptr %12, align 8, !tbaa !14
  %17 = load i32, ptr %11, align 4, !tbaa !16
  %18 = icmp ne i32 %17, 0
  br i1 %18, label %19, label %31

19:                                               ; preds = %4
  %20 = load double, ptr %5, align 8, !tbaa !20
  %21 = call double @llvm.fmuladd.f64(double -1.000000e-01, double %20, double 1.000000e+00)
  %22 = load ptr, ptr %7, align 8, !tbaa !14
  %23 = getelementptr inbounds double, ptr %22, i64 0
  store double %21, ptr %23, align 8, !tbaa !20
  %24 = load ptr, ptr %12, align 8, !tbaa !14
  %25 = getelementptr inbounds double, ptr %24, i64 0
  %26 = load double, ptr %25, align 8, !tbaa !20
  store double %26, ptr %9, align 8, !tbaa !20
  %27 = load double, ptr %9, align 8, !tbaa !20
  %28 = fsub double %27, 4.000000e+03
  %29 = load ptr, ptr %7, align 8, !tbaa !14
  %30 = getelementptr inbounds double, ptr %29, i64 1
  store double %28, ptr %30, align 8, !tbaa !20
  br label %38

31:                                               ; preds = %4
  %32 = load ptr, ptr %12, align 8, !tbaa !14
  %33 = getelementptr inbounds double, ptr %32, i64 1
  %34 = load double, ptr %33, align 8, !tbaa !20
  store double %34, ptr %10, align 8, !tbaa !20
  %35 = load double, ptr %10, align 8, !tbaa !20
  %36 = load ptr, ptr %7, align 8, !tbaa !14
  %37 = getelementptr inbounds double, ptr %36, i64 0
  store double %35, ptr %37, align 8, !tbaa !20
  br label %38

38:                                               ; preds = %31, %19
  call void @llvm.lifetime.end.p0(i64 8, ptr %12) #5
  call void @llvm.lifetime.end.p0(i64 4, ptr %11) #5
  call void @llvm.lifetime.end.p0(i64 8, ptr %10) #5
  call void @llvm.lifetime.end.p0(i64 8, ptr %9) #5
  ret i32 0
}