; Function Attrs: nounwind uwtable
define internal noundef i32 @g(double noundef %0, ptr noundef %1, ptr noundef writeonly captures(none) initializes((0, 8)) %2, ptr noundef readonly captures(none) %3) #0 {
  %5 = load i32, ptr %3, align 4, !tbaa !14
  %6 = tail call ptr @N_VGetArrayPointer(ptr noundef %1) #8
  %.not = icmp eq i32 %5, 0
  br i1 %.not, label %12, label %7

7:                                                ; preds = %4
  %8 = tail call double @llvm.fmuladd.f64(double %0, double -1.000000e-01, double 1.000000e+00)
  store double %8, ptr %2, align 8, !tbaa !11
  %9 = load double, ptr %6, align 8, !tbaa !11
  %10 = fadd double %9, -4.000000e+03
  %11 = getelementptr inbounds nuw i8, ptr %2, i64 8
  store double %10, ptr %11, align 8, !tbaa !11
  br label %15

12:                                               ; preds = %4
  %13 = getelementptr inbounds nuw i8, ptr %6, i64 8
  %14 = load double, ptr %13, align 8, !tbaa !11
  store double %14, ptr %2, align 8, !tbaa !11
  br label %15

15:                                               ; preds = %12, %7
  ret i32 0
}